target datalayout = "e-m:e-p270:32:32-p271:32:32-p272:64:64-i64:64-i128:128-f80:128-n8:16:32:64-S128"
target triple = "x86_64-pc-linux-gnu"

%class.Handle = type { ptr }

@g_assert_poison = external global ptr, align 8
@_ZN15ClassLoaderData27_the_null_class_loader_dataE = external global ptr, align 8
@.str.43 = private unnamed_addr constant [60 x i8] c"src/hotspot/share/classfile/classLoaderDataGraph.inline.hpp\00", align 1
@.str.44 = private unnamed_addr constant [67 x i8] c"guarantee(loader() != nullptr && oopDesc::is_oop(loader())) failed\00", align 1
@.str.45 = private unnamed_addr constant [19 x i8] c"Loader must be oop\00", align 1

; Function Attrs: mustprogress nounwind uwtable
define linkonce_odr hidden noundef ptr @_ZNK6Handle3objEv(ptr noundef nonnull align 8 dereferenceable(8) %0) #1 comdat align 2 {
  %2 = alloca ptr, align 8
  store ptr %0, ptr %2, align 8
  %3 = load ptr, ptr %2, align 8
  %4 = getelementptr inbounds %class.Handle, ptr %3, i32 0, i32 0
  %5 = load ptr, ptr %4, align 8
  %6 = icmp eq ptr %5, null
  br i1 %6, label %7, label %8

7:                                                ; preds = %1
  br label %12

8:                                                ; preds = %1
  %9 = getelementptr inbounds %class.Handle, ptr %3, i32 0, i32 0
  %10 = load ptr, ptr %9, align 8
  %11 = load ptr, ptr %10, align 8
  br label %12

12:                                               ; preds = %8, %7
  %13 = phi ptr [ null, %7 ], [ %11, %8 ]
  ret ptr %13
}

; Function Attrs: mustprogress nounwind uwtable
define linkonce_odr hidden noundef ptr @_ZN20ClassLoaderDataGraph14find_or_createE6Handle(ptr %0) #1 comdat align 2 {
  %2 = alloca ptr, align 8
  %3 = alloca %class.Handle, align 8
  %4 = alloca ptr, align 8
  %5 = alloca %class.Handle, align 8
  %6 = getelementptr inbounds %class.Handle, ptr %3, i32 0, i32 0
  store ptr %0, ptr %6, align 8
  br label %7

7:                                                ; preds = %1
  %8 = call noundef ptr @_ZNK6HandleclEv(ptr noundef nonnull align 8 dereferenceable(8) %3)
  %9 = icmp ne ptr %8, null
  br i1 %9, label %10, label %13

10:                                               ; preds = %7
  %11 = call noundef ptr @_ZNK6HandleclEv(ptr noundef nonnull align 8 dereferenceable(8) %3)
  %12 = call noundef zeroext i1 @_ZN7oopDesc6is_oopEPS_b(ptr noundef %11, i1 noundef zeroext false)
  br i1 %12, label %15, label %13

13:                                               ; preds = %10, %7
  %14 = load ptr, ptr @g_assert_poison, align 8
  store i8 88, ptr %14, align 1
  call void (ptr, i32, ptr, ptr, ...) @_Z15report_vm_errorPKciS0_S0_z(ptr noundef @.str.43, i32 noundef 36, ptr noundef @.str.44, ptr noundef @.str.45) #11
  unreachable

15:                                               ; preds = %10
  br label %16

16:                                               ; preds = %15
  %17 = call noundef ptr @_ZNK6HandleclEv(ptr noundef nonnull align 8 dereferenceable(8) %3)
  %18 = call noundef ptr @_ZN21java_lang_ClassLoader19loader_data_acquireEP7oopDesc(ptr noundef %17)
  store ptr %18, ptr %4, align 8
  %19 = load ptr, ptr %4, align 8
  %20 = icmp ne ptr %19, null
  br i1 %20, label %21, label %23

21:                                               ; preds = %16
  %22 = load ptr, ptr %4, align 8
  store ptr %22, ptr %2, align 8
  br label %27

23:                                               ; preds = %16
  call void @llvm.memcpy.p0.p0.i64(ptr align 8 %5, ptr align 8 %3, i64 8, i1 false)
  %24 = getelementptr inbounds %class.Handle, ptr %5, i32 0, i32 0
  %25 = load ptr, ptr %24, align 8
  %26 = call noundef ptr @_ZN20ClassLoaderDataGraph3addE6Handleb(ptr %25, i1 noundef zeroext false)
  store ptr %26, ptr %2, align 8
  br label %27

27:                                               ; preds = %23, %21
  %28 = load ptr, ptr %2, align 8
  ret ptr %28
}

; Function Attrs: mustprogress nounwind uwtable
define linkonce_odr hidden noundef ptr @_ZN15ClassLoaderData26the_null_class_loader_dataEv() #1 comdat align 2 {
  %1 = load ptr, ptr @_ZN15ClassLoaderData27_the_null_class_loader_dataE, align 8
  ret ptr %1
}

; Function Attrs: mustprogress nounwind uwtable
define linkonce_odr hidden noundef ptr @_ZNK6HandleclEv(ptr noundef nonnull align 8 dereferenceable(8) %0) #1 comdat align 2 {
  %2 = alloca ptr, align 8
  store ptr %0, ptr %2, align 8
  %3 = load ptr, ptr %2, align 8
  %4 = call noundef ptr @_ZNK6Handle3objEv(ptr noundef nonnull align 8 dereferenceable(8) %3)
  ret ptr %4
}

; Function Attrs: mustprogress nounwind uwtable
define hidden noundef ptr @_ZN16SystemDictionary15register_loaderE6Handleb(ptr %0, i1 noundef zeroext %1) #1 align 2 {
  %3 = alloca ptr, align 8
  %4 = alloca %class.Handle, align 8
  %5 = alloca i8, align 1
  %6 = alloca %class.Handle, align 8
  %7 = alloca %class.Handle, align 8
  %8 = getelementptr inbounds %class.Handle, ptr %4, i32 0, i32 0
  store ptr %0, ptr %8, align 8
  %9 = zext i1 %1 to i8
  store i8 %9, ptr %5, align 1
  %10 = load i8, ptr %5, align 1
  %11 = trunc i8 %10 to i1
  br i1 %11, label %12, label %16

12:                                               ; preds = %2
  call void @llvm.memcpy.p0.p0.i64(ptr align 8 %6, ptr align 8 %4, i64 8, i1 false)
  %13 = getelementptr inbounds %class.Handle, ptr %6, i32 0, i32 0
  %14 = load ptr, ptr %13, align 8
  %15 = call noundef ptr @_ZN20ClassLoaderDataGraph3addE6Handleb(ptr %14, i1 noundef zeroext true)
  store ptr %15, ptr %3, align 8
  br label %27

16:                                               ; preds = %2
  %17 = call noundef ptr @_ZNK6HandleclEv(ptr noundef nonnull align 8 dereferenceable(8) %4)
  %18 = icmp eq ptr %17, null
  br i1 %18, label %19, label %21

19:                                               ; preds = %16
  %20 = call noundef ptr @_ZN15ClassLoaderData26the_null_class_loader_dataEv()
  br label %25

21:                                               ; preds = %16
  call void @llvm.memcpy.p0.p0.i64(ptr align 8 %7, ptr align 8 %4, i64 8, i1 false)
  %22 = getelementptr inbounds %class.Handle, ptr %7, i32 0, i32 0
  %23 = load ptr, ptr %22, align 8
  %24 = call noundef ptr @_ZN20ClassLoaderDataGraph14find_or_createE6Handle(ptr %23)
  br label %25

25:                                               ; preds = %21, %19
  %26 = phi ptr [ %20, %19 ], [ %24, %21 ]
  store ptr %26, ptr %3, align 8
  br label %27

27:                                               ; preds = %25, %12
  %28 = load ptr, ptr %3, align 8
  ret ptr %28
}