; Function Attrs: mustprogress nounwind uwtable
define hidden noundef ptr @_ZN16SystemDictionary15register_loaderE6Handleb(ptr %0, i1 noundef zeroext %1) local_unnamed_addr #0 align 2 {
  br i1 %1, label %3, label %5

3:                                                ; preds = %2
  %4 = tail call noundef ptr @_ZN20ClassLoaderDataGraph3addE6Handleb(ptr %0, i1 noundef zeroext true) #14
  br label %_ZN20ClassLoaderDataGraph14find_or_createE6Handle.exit

5:                                                ; preds = %2
  %6 = icmp eq ptr %0, null
  br i1 %6, label %_ZNK6HandleclEv.exit.thread, label %_ZNK6HandleclEv.exit

_ZNK6HandleclEv.exit:                             ; preds = %5
  %7 = load ptr, ptr %0, align 8
  %8 = icmp eq ptr %7, null
  br i1 %8, label %_ZNK6HandleclEv.exit.thread, label %_ZNK6HandleclEv.exit5.i

_ZNK6HandleclEv.exit.thread:                      ; preds = %5, %_ZNK6HandleclEv.exit
  %9 = load ptr, ptr @_ZN15ClassLoaderData27_the_null_class_loader_dataE, align 8
  br label %_ZN20ClassLoaderDataGraph14find_or_createE6Handle.exit

_ZNK6HandleclEv.exit5.i:                          ; preds = %_ZNK6HandleclEv.exit
  %10 = tail call noundef zeroext i1 @_ZN7oopDesc6is_oopEPS_b(ptr noundef nonnull %7, i1 noundef zeroext false) #14
  br i1 %10, label %_ZNK6HandleclEv.exit6.i, label %_ZNK6HandleclEv.exit.thread.i

_ZNK6HandleclEv.exit.thread.i:                    ; preds = %_ZNK6HandleclEv.exit5.i
  %11 = load ptr, ptr @g_assert_poison, align 8
  store i8 88, ptr %11, align 1
  tail call void (ptr, i32, ptr, ptr, ...) @_Z15report_vm_errorPKciS0_S0_z(ptr noundef nonnull @.str.43, i32 noundef 36, ptr noundef nonnull @.str.44, ptr noundef nonnull @.str.45) #15
  unreachable

_ZNK6HandleclEv.exit6.i:                          ; preds = %_ZNK6HandleclEv.exit5.i
  %12 = load ptr, ptr %0, align 8
  %13 = tail call noundef ptr @_ZN21java_lang_ClassLoader19loader_data_acquireEP7oopDesc(ptr noundef %12) #14
  %.not4.i = icmp eq ptr %13, null
  br i1 %.not4.i, label %14, label %_ZN20ClassLoaderDataGraph14find_or_createE6Handle.exit

14:                                               ; preds = %_ZNK6HandleclEv.exit6.i
  %15 = tail call noundef ptr @_ZN20ClassLoaderDataGraph3addE6Handleb(ptr nonnull %0, i1 noundef zeroext false) #14
  br label %_ZN20ClassLoaderDataGraph14find_or_createE6Handle.exit

_ZN20ClassLoaderDataGraph14find_or_createE6Handle.exit: ; preds = %14, %_ZNK6HandleclEv.exit6.i, %_ZNK6HandleclEv.exit.thread, %3
  %.0 = phi ptr [ %4, %3 ], [ %9, %_ZNK6HandleclEv.exit.thread ], [ %15, %14 ], [ %13, %_ZNK6HandleclEv.exit6.i ]
  ret ptr %.0
}